target datalayout = "e-m:e-p270:32:32-p271:32:32-p272:64:64-i64:64-i128:128-f80:128-n8:16:32:64-S128"
target triple = "x86_64-pc-linux-gnu"

%struct.stbhw_tileset = type { i32, [6 x i32], i32, ptr, ptr, i32, i32, i32, i32 }

; Function Attrs: nounwind uwtable
define void @stbhw_free_tileset(ptr noundef %0) #0 {
  %2 = alloca ptr, align 8
  %3 = alloca i32, align 4
  store ptr %0, ptr %2, align 8, !tbaa !78
  call void @llvm.lifetime.start.p0(i64 4, ptr %3) #6
  store i32 0, ptr %3, align 4, !tbaa !10
  br label %4

4:                                                ; preds = %18, %1
  %5 = load i32, ptr %3, align 4, !tbaa !10
  %6 = load ptr, ptr %2, align 8, !tbaa !78
  %7 = getelementptr inbounds nuw %struct.stbhw_tileset, ptr %6, i32 0, i32 5
  %8 = load i32, ptr %7, align 8, !tbaa !87
  %9 = icmp slt i32 %5, %8
  br i1 %9, label %10, label %21

10:                                               ; preds = %4
  %11 = load ptr, ptr %2, align 8, !tbaa !78
  %12 = getelementptr inbounds nuw %struct.stbhw_tileset, ptr %11, i32 0, i32 3
  %13 = load ptr, ptr %12, align 8, !tbaa !86
  %14 = load i32, ptr %3, align 4, !tbaa !10
  %15 = sext i32 %14 to i64
  %16 = getelementptr inbounds ptr, ptr %13, i64 %15
  %17 = load ptr, ptr %16, align 8, !tbaa !34
  call void @free(ptr noundef %17) #6
  br label %18

18:                                               ; preds = %10
  %19 = load i32, ptr %3, align 4, !tbaa !10
  %20 = add nsw i32 %19, 1
  store i32 %20, ptr %3, align 4, !tbaa !10
  br label %4, !llvm.loop !104

21:                                               ; preds = %4
  store i32 0, ptr %3, align 4, !tbaa !10
  br label %22

22:                                               ; preds = %36, %21
  %23 = load i32, ptr %3, align 4, !tbaa !10
  %24 = load ptr, ptr %2, align 8, !tbaa !78
  %25 = getelementptr inbounds nuw %struct.stbhw_tileset, ptr %24, i32 0, i32 7
  %26 = load i32, ptr %25, align 8, !tbaa !89
  %27 = icmp slt i32 %23, %26
  br i1 %27, label %28, label %39

28:                                               ; preds = %22
  %29 = load ptr, ptr %2, align 8, !tbaa !78
  %30 = getelementptr inbounds nuw %struct.stbhw_tileset, ptr %29, i32 0, i32 4
  %31 = load ptr, ptr %30, align 8, !tbaa !88
  %32 = load i32, ptr %3, align 4, !tbaa !10
  %33 = sext i32 %32 to i64
  %34 = getelementptr inbounds ptr, ptr %31, i64 %33
  %35 = load ptr, ptr %34, align 8, !tbaa !34
  call void @free(ptr noundef %35) #6
  br label %36

36:                                               ; preds = %28
  %37 = load i32, ptr %3, align 4, !tbaa !10
  %38 = add nsw i32 %37, 1
  store i32 %38, ptr %3, align 4, !tbaa !10
  br label %22, !llvm.loop !105

39:                                               ; preds = %22
  %40 = load ptr, ptr %2, align 8, !tbaa !78
  %41 = getelementptr inbounds nuw %struct.stbhw_tileset, ptr %40, i32 0, i32 3
  %42 = load ptr, ptr %41, align 8, !tbaa !86
  call void @free(ptr noundef %42) #6
  %43 = load ptr, ptr %2, align 8, !tbaa !78
  %44 = getelementptr inbounds nuw %struct.stbhw_tileset, ptr %43, i32 0, i32 4
  %45 = load ptr, ptr %44, align 8, !tbaa !88
  call void @free(ptr noundef %45) #6
  %46 = load ptr, ptr %2, align 8, !tbaa !78
  %47 = getelementptr inbounds nuw %struct.stbhw_tileset, ptr %46, i32 0, i32 3
  store ptr null, ptr %47, align 8, !tbaa !86
  %48 = load ptr, ptr %2, align 8, !tbaa !78
  %49 = getelementptr inbounds nuw %struct.stbhw_tileset, ptr %48, i32 0, i32 4
  store ptr null, ptr %49, align 8, !tbaa !88
  %50 = load ptr, ptr %2, align 8, !tbaa !78
  %51 = getelementptr inbounds nuw %struct.stbhw_tileset, ptr %50, i32 0, i32 6
  store i32 0, ptr %51, align 4, !tbaa !102
  %52 = load ptr, ptr %2, align 8, !tbaa !78
  %53 = getelementptr inbounds nuw %struct.stbhw_tileset, ptr %52, i32 0, i32 5
  store i32 0, ptr %53, align 8, !tbaa !87
  %54 = load ptr, ptr %2, align 8, !tbaa !78
  %55 = getelementptr inbounds nuw %struct.stbhw_tileset, ptr %54, i32 0, i32 8
  store i32 0, ptr %55, align 4, !tbaa !103
  %56 = load ptr, ptr %2, align 8, !tbaa !78
  %57 = getelementptr inbounds nuw %struct.stbhw_tileset, ptr %56, i32 0, i32 7
  store i32 0, ptr %57, align 8, !tbaa !89
  call void @llvm.lifetime.end.p0(i64 4, ptr %3) #6
  ret void
}