; Function Attrs: nounwind uwtable
define void @stbhw_free_tileset(ptr noundef captures(none) %0) local_unnamed_addr #2 {
  %2 = getelementptr inbounds nuw i8, ptr %0, i64 48
  %3 = load i32, ptr %2, align 8, !tbaa !83
  %4 = icmp sgt i32 %3, 0
  br i1 %4, label %.lr.ph, label %.preheader

.lr.ph:                                           ; preds = %1
  %5 = getelementptr inbounds nuw i8, ptr %0, i64 32
  br label %10

.preheader:                                       ; preds = %10, %1
  %6 = getelementptr inbounds nuw i8, ptr %0, i64 56
  %7 = load i32, ptr %6, align 8, !tbaa !85
  %8 = icmp sgt i32 %7, 0
  br i1 %8, label %.lr.ph20, label %._crit_edge

.lr.ph20:                                         ; preds = %.preheader
  %9 = getelementptr inbounds nuw i8, ptr %0, i64 40
  br label %17

10:                                               ; preds = %.lr.ph, %10
  %indvars.iv = phi i64 [ 0, %.lr.ph ], [ %indvars.iv.next, %10 ]
  %11 = load ptr, ptr %5, align 8, !tbaa !82
  %12 = getelementptr inbounds nuw ptr, ptr %11, i64 %indvars.iv
  %13 = load ptr, ptr %12, align 8, !tbaa !60
  tail call void @free(ptr noundef %13) #15
  %indvars.iv.next = add nuw nsw i64 %indvars.iv, 1
  %14 = load i32, ptr %2, align 8, !tbaa !83
  %15 = sext i32 %14 to i64
  %16 = icmp slt i64 %indvars.iv.next, %15
  br i1 %16, label %10, label %.preheader, !llvm.loop !100

17:                                               ; preds = %.lr.ph20, %17
  %indvars.iv22 = phi i64 [ 0, %.lr.ph20 ], [ %indvars.iv.next23, %17 ]
  %18 = load ptr, ptr %9, align 8, !tbaa !84
  %19 = getelementptr inbounds nuw ptr, ptr %18, i64 %indvars.iv22
  %20 = load ptr, ptr %19, align 8, !tbaa !60
  tail call void @free(ptr noundef %20) #15
  %indvars.iv.next23 = add nuw nsw i64 %indvars.iv22, 1
  %21 = load i32, ptr %6, align 8, !tbaa !85
  %22 = sext i32 %21 to i64
  %23 = icmp slt i64 %indvars.iv.next23, %22
  br i1 %23, label %17, label %._crit_edge, !llvm.loop !101

._crit_edge:                                      ; preds = %17, %.preheader
  %24 = getelementptr inbounds nuw i8, ptr %0, i64 32
  %25 = load ptr, ptr %24, align 8, !tbaa !82
  tail call void @free(ptr noundef %25) #15
  %26 = getelementptr inbounds nuw i8, ptr %0, i64 40
  %27 = load ptr, ptr %26, align 8, !tbaa !84
  tail call void @free(ptr noundef %27) #15
  tail call void @llvm.memset.p0.i64(ptr noundef nonnull align 8 dereferenceable(32) %24, i8 0, i64 32, i1 false)
  ret void
}